target datalayout = "e-m:e-p270:32:32-p271:32:32-p272:64:64-i64:64-i128:128-f80:128-n8:16:32:64-S128"
target triple = "x86_64-pc-linux-gnu"

%class.cmOSXBundleGenerator = type { ptr, ptr, ptr, ptr }
%"class.__gnu_cxx::__normal_iterator" = type { ptr }
%"struct.cmGeneratorTarget::SourceFileFlags" = type { i32, ptr }
%"struct.std::_Vector_base.396" = type { %"struct.std::_Vector_base<const cmSourceFile *, std::allocator<const cmSourceFile *>>::_Vector_impl" }
%"struct.std::_Vector_base<const cmSourceFile *, std::allocator<const cmSourceFile *>>::_Vector_impl" = type { %"struct.std::_Vector_base<const cmSourceFile *, std::allocator<const cmSourceFile *>>::_Vector_impl_data" }
%"struct.std::_Vector_base<const cmSourceFile *, std::allocator<const cmSourceFile *>>::_Vector_impl_data" = type { ptr, ptr, ptr }

; Function Attrs: mustprogress nounwind uwtable
define linkonce_odr dso_local noundef nonnull align 8 dereferenceable(8) ptr @_ZNK9__gnu_cxx17__normal_iteratorIPKPK12cmSourceFileSt6vectorIS3_SaIS3_EEE4baseEv(ptr noundef nonnull align 8 dereferenceable(8) %0) #7 comdat align 2 {
  %2 = alloca ptr, align 8
  store ptr %0, ptr %2, align 8, !tbaa !199
  %3 = load ptr, ptr %2, align 8
  %4 = getelementptr inbounds nuw %"class.__gnu_cxx::__normal_iterator", ptr %3, i32 0, i32 0
  ret ptr %4
}

; Function Attrs: mustprogress nounwind uwtable
define linkonce_odr dso_local void @_ZN9__gnu_cxx17__normal_iteratorIPKPK12cmSourceFileSt6vectorIS3_SaIS3_EEEC2ERKS5_(ptr noundef nonnull align 8 dereferenceable(8) %0, ptr noundef nonnull align 8 dereferenceable(8) %1) unnamed_addr #7 comdat align 2 {
  %3 = alloca ptr, align 8
  %4 = alloca ptr, align 8
  store ptr %0, ptr %3, align 8, !tbaa !199
  store ptr %1, ptr %4, align 8, !tbaa !320
  %5 = load ptr, ptr %3, align 8
  %6 = getelementptr inbounds nuw %"class.__gnu_cxx::__normal_iterator", ptr %5, i32 0, i32 0
  %7 = load ptr, ptr %4, align 8, !tbaa !320
  %8 = load ptr, ptr %7, align 8, !tbaa !201
  store ptr %8, ptr %6, align 8, !tbaa !203
  ret void
}

; Function Attrs: mustprogress nounwind uwtable
define linkonce_odr dso_local noundef nonnull align 8 dereferenceable(8) ptr @_ZN9__gnu_cxx17__normal_iteratorIPKPK12cmSourceFileSt6vectorIS3_SaIS3_EEEppEv(ptr noundef nonnull align 8 dereferenceable(8) %0) #7 comdat align 2 {
  %2 = alloca ptr, align 8
  store ptr %0, ptr %2, align 8, !tbaa !199
  %3 = load ptr, ptr %2, align 8
  %4 = getelementptr inbounds nuw %"class.__gnu_cxx::__normal_iterator", ptr %3, i32 0, i32 0
  %5 = load ptr, ptr %4, align 8, !tbaa !203
  %6 = getelementptr inbounds nuw ptr, ptr %5, i32 1
  store ptr %6, ptr %4, align 8, !tbaa !203
  ret ptr %3
}

; Function Attrs: mustprogress nounwind uwtable
define linkonce_odr dso_local noundef nonnull align 8 dereferenceable(8) ptr @_ZNK9__gnu_cxx17__normal_iteratorIPKPK12cmSourceFileSt6vectorIS3_SaIS3_EEEdeEv(ptr noundef nonnull align 8 dereferenceable(8) %0) #7 comdat align 2 {
  %2 = alloca ptr, align 8
  store ptr %0, ptr %2, align 8, !tbaa !199
  %3 = load ptr, ptr %2, align 8
  %4 = getelementptr inbounds nuw %"class.__gnu_cxx::__normal_iterator", ptr %3, i32 0, i32 0
  %5 = load ptr, ptr %4, align 8, !tbaa !203
  ret ptr %5
}

; Function Attrs: inlinehint mustprogress nounwind uwtable
define linkonce_odr dso_local noundef zeroext i1 @_ZN9__gnu_cxxneIPKPK12cmSourceFileSt6vectorIS3_SaIS3_EEEEbRKNS_17__normal_iteratorIT_T0_EESE_(ptr noundef nonnull align 8 dereferenceable(8) %0, ptr noundef nonnull align 8 dereferenceable(8) %1) #8 comdat {
  %3 = alloca ptr, align 8
  %4 = alloca ptr, align 8
  store ptr %0, ptr %3, align 8, !tbaa !199
  store ptr %1, ptr %4, align 8, !tbaa !199
  %5 = load ptr, ptr %3, align 8, !tbaa !199
  %6 = call noundef nonnull align 8 dereferenceable(8) ptr @_ZNK9__gnu_cxx17__normal_iteratorIPKPK12cmSourceFileSt6vectorIS3_SaIS3_EEE4baseEv(ptr noundef nonnull align 8 dereferenceable(8) %5) #3
  %7 = load ptr, ptr %6, align 8, !tbaa !201
  %8 = load ptr, ptr %4, align 8, !tbaa !199
  %9 = call noundef nonnull align 8 dereferenceable(8) ptr @_ZNK9__gnu_cxx17__normal_iteratorIPKPK12cmSourceFileSt6vectorIS3_SaIS3_EEE4baseEv(ptr noundef nonnull align 8 dereferenceable(8) %8) #3
  %10 = load ptr, ptr %9, align 8, !tbaa !201
  %11 = icmp ne ptr %7, %10
  ret i1 %11
}

; Function Attrs: mustprogress nounwind uwtable
define linkonce_odr dso_local ptr @_ZNKSt6vectorIPK12cmSourceFileSaIS2_EE3endEv(ptr noundef nonnull align 8 dereferenceable(24) %0) #7 comdat align 2 {
  %2 = alloca %"class.__gnu_cxx::__normal_iterator", align 8
  %3 = alloca ptr, align 8
  store ptr %0, ptr %3, align 8, !tbaa !187
  %4 = load ptr, ptr %3, align 8
  %5 = getelementptr inbounds nuw %"struct.std::_Vector_base.396", ptr %4, i32 0, i32 0
  %6 = getelementptr inbounds nuw %"struct.std::_Vector_base<const cmSourceFile *, std::allocator<const cmSourceFile *>>::_Vector_impl_data", ptr %5, i32 0, i32 1
  call void @_ZN9__gnu_cxx17__normal_iteratorIPKPK12cmSourceFileSt6vectorIS3_SaIS3_EEEC2ERKS5_(ptr noundef nonnull align 8 dereferenceable(8) %2, ptr noundef nonnull align 8 dereferenceable(8) %6) #3
  %7 = getelementptr inbounds nuw %"class.__gnu_cxx::__normal_iterator", ptr %2, i32 0, i32 0
  %8 = load ptr, ptr %7, align 8
  ret ptr %8
}

; Function Attrs: mustprogress nounwind uwtable
define linkonce_odr dso_local ptr @_ZNKSt6vectorIPK12cmSourceFileSaIS2_EE5beginEv(ptr noundef nonnull align 8 dereferenceable(24) %0) #7 comdat align 2 {
  %2 = alloca %"class.__gnu_cxx::__normal_iterator", align 8
  %3 = alloca ptr, align 8
  store ptr %0, ptr %3, align 8, !tbaa !187
  %4 = load ptr, ptr %3, align 8
  %5 = getelementptr inbounds nuw %"struct.std::_Vector_base.396", ptr %4, i32 0, i32 0
  %6 = getelementptr inbounds nuw %"struct.std::_Vector_base<const cmSourceFile *, std::allocator<const cmSourceFile *>>::_Vector_impl_data", ptr %5, i32 0, i32 0
  call void @_ZN9__gnu_cxx17__normal_iteratorIPKPK12cmSourceFileSt6vectorIS3_SaIS3_EEEC2ERKS5_(ptr noundef nonnull align 8 dereferenceable(8) %2, ptr noundef nonnull align 8 dereferenceable(8) %6) #3
  %7 = getelementptr inbounds nuw %"class.__gnu_cxx::__normal_iterator", ptr %2, i32 0, i32 0
  %8 = load ptr, ptr %7, align 8
  ret ptr %8
}

; Function Attrs: mustprogress uwtable
define dso_local noundef zeroext i1 @_ZN20cmOSXBundleGenerator8MustSkipEv(ptr noundef nonnull align 8 dereferenceable(32) %0) #5 align 2 {
  %2 = alloca ptr, align 8
  store ptr %0, ptr %2, align 8, !tbaa !18
  %3 = load ptr, ptr %2, align 8
  %4 = getelementptr inbounds nuw %class.cmOSXBundleGenerator, ptr %3, i32 0, i32 0
  %5 = load ptr, ptr %4, align 8, !tbaa !22
  %6 = call noundef zeroext i1 @_ZNK17cmGeneratorTarget26HaveWellDefinedOutputFilesEv(ptr noundef nonnull align 8 dereferenceable(2912) %5)
  %7 = xor i1 %6, true
  ret i1 %7
}

; Function Attrs: mustprogress uwtable
define dso_local void @_ZN20cmOSXBundleGenerator31GenerateMacOSXContentStatementsERKSt6vectorIPK12cmSourceFileSaIS3_EEPNS_26MacOSXContentGeneratorTypeERKNSt7__cxx1112basic_stringIcSt11char_traitsIcESaIcEEE(ptr noundef nonnull align 8 dereferenceable(32) %0, ptr noundef nonnull align 8 dereferenceable(24) %1, ptr noundef %2, ptr noundef nonnull align 8 dereferenceable(32) %3) #5 align 2 {
  %5 = alloca ptr, align 8
  %6 = alloca ptr, align 8
  %7 = alloca ptr, align 8
  %8 = alloca ptr, align 8
  %9 = alloca ptr, align 8
  %10 = alloca %"class.__gnu_cxx::__normal_iterator", align 8
  %11 = alloca %"class.__gnu_cxx::__normal_iterator", align 8
  %12 = alloca ptr, align 8
  %13 = alloca %"struct.cmGeneratorTarget::SourceFileFlags", align 8
  store ptr %0, ptr %5, align 8, !tbaa !18
  store ptr %1, ptr %6, align 8, !tbaa !187
  store ptr %2, ptr %7, align 8, !tbaa !189
  store ptr %3, ptr %8, align 8, !tbaa !160
  %14 = load ptr, ptr %5, align 8
  %15 = call noundef zeroext i1 @_ZN20cmOSXBundleGenerator8MustSkipEv(ptr noundef nonnull align 8 dereferenceable(32) %14)
  br i1 %15, label %16, label %17

16:                                               ; preds = %4
  br label %54

17:                                               ; preds = %4
  call void @llvm.lifetime.start.p0(i64 8, ptr %9) #3
  %18 = load ptr, ptr %6, align 8, !tbaa !187
  store ptr %18, ptr %9, align 8, !tbaa !187
  call void @llvm.lifetime.start.p0(i64 8, ptr %10) #3
  %19 = load ptr, ptr %9, align 8, !tbaa !187
  %20 = call ptr @_ZNKSt6vectorIPK12cmSourceFileSaIS2_EE5beginEv(ptr noundef nonnull align 8 dereferenceable(24) %19) #3
  %21 = getelementptr inbounds nuw %"class.__gnu_cxx::__normal_iterator", ptr %10, i32 0, i32 0
  store ptr %20, ptr %21, align 8
  call void @llvm.lifetime.start.p0(i64 8, ptr %11) #3
  %22 = load ptr, ptr %9, align 8, !tbaa !187
  %23 = call ptr @_ZNKSt6vectorIPK12cmSourceFileSaIS2_EE3endEv(ptr noundef nonnull align 8 dereferenceable(24) %22) #3
  %24 = getelementptr inbounds nuw %"class.__gnu_cxx::__normal_iterator", ptr %11, i32 0, i32 0
  store ptr %23, ptr %24, align 8
  br label %25

25:                                               ; preds = %52, %17
  %26 = call noundef zeroext i1 @_ZN9__gnu_cxxneIPKPK12cmSourceFileSt6vectorIS3_SaIS3_EEEEbRKNS_17__normal_iteratorIT_T0_EESE_(ptr noundef nonnull align 8 dereferenceable(8) %10, ptr noundef nonnull align 8 dereferenceable(8) %11) #3
  br i1 %26, label %28, label %27

27:                                               ; preds = %25
  call void @llvm.lifetime.end.p0(i64 8, ptr %11) #3
  call void @llvm.lifetime.end.p0(i64 8, ptr %10) #3
  call void @llvm.lifetime.end.p0(i64 8, ptr %9) #3
  br label %54

28:                                               ; preds = %25
  call void @llvm.lifetime.start.p0(i64 8, ptr %12) #3
  %29 = call noundef nonnull align 8 dereferenceable(8) ptr @_ZNK9__gnu_cxx17__normal_iteratorIPKPK12cmSourceFileSt6vectorIS3_SaIS3_EEEdeEv(ptr noundef nonnull align 8 dereferenceable(8) %10) #3
  %30 = load ptr, ptr %29, align 8, !tbaa !191
  store ptr %30, ptr %12, align 8, !tbaa !191
  call void @llvm.lifetime.start.p0(i64 16, ptr %13) #3
  %31 = getelementptr inbounds nuw %class.cmOSXBundleGenerator, ptr %14, i32 0, i32 0
  %32 = load ptr, ptr %31, align 8, !tbaa !22
  %33 = load ptr, ptr %12, align 8, !tbaa !191
  %34 = call { i32, ptr } @_ZNK17cmGeneratorTarget24GetTargetSourceFileFlagsEPK12cmSourceFile(ptr noundef nonnull align 8 dereferenceable(2912) %32, ptr noundef %33)
  %35 = getelementptr inbounds nuw { i32, ptr }, ptr %13, i32 0, i32 0
  %36 = extractvalue { i32, ptr } %34, 0
  store i32 %36, ptr %35, align 8
  %37 = getelementptr inbounds nuw { i32, ptr }, ptr %13, i32 0, i32 1
  %38 = extractvalue { i32, ptr } %34, 1
  store ptr %38, ptr %37, align 8
  %39 = getelementptr inbounds nuw %"struct.cmGeneratorTarget::SourceFileFlags", ptr %13, i32 0, i32 0
  %40 = load i32, ptr %39, align 8, !tbaa !193
  %41 = icmp ne i32 %40, 0
  br i1 %41, label %42, label %51

42:                                               ; preds = %28
  %43 = load ptr, ptr %7, align 8, !tbaa !189
  %44 = load ptr, ptr %12, align 8, !tbaa !191
  %45 = getelementptr inbounds nuw %"struct.cmGeneratorTarget::SourceFileFlags", ptr %13, i32 0, i32 1
  %46 = load ptr, ptr %45, align 8, !tbaa !196
  %47 = load ptr, ptr %8, align 8, !tbaa !160
  %48 = load ptr, ptr %43, align 8, !tbaa !197
  %49 = getelementptr inbounds ptr, ptr %48, i64 2
  %50 = load ptr, ptr %49, align 8
  call void %50(ptr noundef nonnull align 8 dereferenceable(8) %43, ptr noundef nonnull align 1 %44, ptr noundef %46, ptr noundef nonnull align 8 dereferenceable(32) %47)
  br label %51

51:                                               ; preds = %42, %28
  call void @llvm.lifetime.end.p0(i64 16, ptr %13) #3
  call void @llvm.lifetime.end.p0(i64 8, ptr %12) #3
  br label %52

52:                                               ; preds = %51
  %53 = call noundef nonnull align 8 dereferenceable(8) ptr @_ZN9__gnu_cxx17__normal_iteratorIPKPK12cmSourceFileSt6vectorIS3_SaIS3_EEEppEv(ptr noundef nonnull align 8 dereferenceable(8) %10) #3
  br label %25

54:                                               ; preds = %16, %27
  ret void
}