; Function Attrs: mustprogress uwtable
define dso_local void @_ZN20cmOSXBundleGenerator31GenerateMacOSXContentStatementsERKSt6vectorIPK12cmSourceFileSaIS3_EEPNS_26MacOSXContentGeneratorTypeERKNSt7__cxx1112basic_stringIcSt11char_traitsIcESaIcEEE(ptr noundef nonnull readonly align 8 captures(none) dereferenceable(32) %0, ptr noundef nonnull readonly align 8 captures(none) dereferenceable(24) %1, ptr noundef %2, ptr noundef nonnull align 8 dereferenceable(32) %3) local_unnamed_addr #4 align 2 {
  %5 = load ptr, ptr %0, align 8, !tbaa !4
  %6 = tail call noundef zeroext i1 @_ZNK17cmGeneratorTarget26HaveWellDefinedOutputFilesEv(ptr noundef nonnull align 8 dereferenceable(2912) %5)
  br i1 %6, label %7, label %.loopexit

7:                                                ; preds = %4
  %8 = load ptr, ptr %1, align 8, !tbaa !341
  %9 = getelementptr inbounds nuw i8, ptr %1, i64 8
  %10 = load ptr, ptr %9, align 8, !tbaa !341
  %.not1213 = icmp eq ptr %8, %10
  br i1 %.not1213, label %.loopexit, label %.lr.ph

.lr.ph:                                           ; preds = %7, %20
  %.sroa.09.014 = phi ptr [ %21, %20 ], [ %8, %7 ]
  %11 = load ptr, ptr %.sroa.09.014, align 8, !tbaa !343
  %12 = load ptr, ptr %0, align 8, !tbaa !4
  %13 = tail call { i32, ptr } @_ZNK17cmGeneratorTarget24GetTargetSourceFileFlagsEPK12cmSourceFile(ptr noundef nonnull align 8 dereferenceable(2912) %12, ptr noundef %11)
  %14 = extractvalue { i32, ptr } %13, 0
  %.not = icmp eq i32 %14, 0
  br i1 %.not, label %20, label %15

15:                                               ; preds = %.lr.ph
  %16 = extractvalue { i32, ptr } %13, 1
  %17 = load ptr, ptr %2, align 8, !tbaa !345
  %18 = getelementptr inbounds nuw i8, ptr %17, i64 16
  %19 = load ptr, ptr %18, align 8
  tail call void %19(ptr noundef nonnull align 8 dereferenceable(8) %2, ptr noundef nonnull align 1 %11, ptr noundef %16, ptr noundef nonnull align 8 dereferenceable(32) %3)
  br label %20

20:                                               ; preds = %15, %.lr.ph
  %21 = getelementptr inbounds nuw i8, ptr %.sroa.09.014, i64 8
  %.not12 = icmp eq ptr %21, %10
  br i1 %.not12, label %.loopexit, label %.lr.ph

.loopexit:                                        ; preds = %20, %7, %4
  ret void
}